target datalayout = "e-m:e-p270:32:32-p271:32:32-p272:64:64-i64:64-i128:128-f80:128-n8:16:32:64-S128"
target triple = "x86_64-pc-linux-gnu"

%struct.hiredisAllocFuncs = type { ptr, ptr, ptr, ptr, ptr }
%struct.redisReply = type { i32, i64, double, i64, ptr, [4 x i8], i64, ptr }
%struct.redisReadTask = type { i32, i64, i32, ptr, ptr, ptr }

@hiredisAllocFns = external global %struct.hiredisAllocFuncs, align 8

; Function Attrs: inlinehint nounwind uwtable
define internal ptr @hi_calloc(i64 noundef %0, i64 noundef %1) #2 {
  %3 = alloca ptr, align 8
  %4 = alloca i64, align 8
  %5 = alloca i64, align 8
  store i64 %0, ptr %4, align 8, !tbaa !19
  store i64 %1, ptr %5, align 8, !tbaa !19
  %6 = load i64, ptr %5, align 8, !tbaa !19
  %7 = udiv i64 -1, %6
  %8 = load i64, ptr %4, align 8, !tbaa !19
  %9 = icmp ult i64 %7, %8
  br i1 %9, label %10, label %11

10:                                               ; preds = %2
  store ptr null, ptr %3, align 8
  br label %16

11:                                               ; preds = %2
  %12 = load ptr, ptr getelementptr inbounds nuw (%struct.hiredisAllocFuncs, ptr @hiredisAllocFns, i32 0, i32 1), align 8, !tbaa !97
  %13 = load i64, ptr %4, align 8, !tbaa !19
  %14 = load i64, ptr %5, align 8, !tbaa !19
  %15 = call ptr %12(i64 noundef %13, i64 noundef %14)
  store ptr %15, ptr %3, align 8
  br label %16

16:                                               ; preds = %11, %10
  %17 = load ptr, ptr %3, align 8
  ret ptr %17
}

; Function Attrs: inlinehint nounwind uwtable
define internal ptr @hi_malloc(i64 noundef %0) #2 {
  %2 = alloca i64, align 8
  store i64 %0, ptr %2, align 8, !tbaa !19
  %3 = load ptr, ptr @hiredisAllocFns, align 8, !tbaa !36
  %4 = load i64, ptr %2, align 8, !tbaa !19
  %5 = call ptr %3(i64 noundef %4)
  ret ptr %5
}

; Function Attrs: nounwind uwtable
define internal ptr @createReplyObject(i32 noundef %0) #0 {
  %2 = alloca ptr, align 8
  %3 = alloca i32, align 4
  %4 = alloca ptr, align 8
  %5 = alloca i32, align 4
  store i32 %0, ptr %3, align 4, !tbaa !29
  call void @llvm.lifetime.start.p0(i64 8, ptr %4) #10
  %6 = call ptr @hi_calloc(i64 noundef 1, i64 noundef 64)
  store ptr %6, ptr %4, align 8, !tbaa !8
  %7 = load ptr, ptr %4, align 8, !tbaa !8
  %8 = icmp eq ptr %7, null
  br i1 %8, label %9, label %10

9:                                                ; preds = %1
  store ptr null, ptr %2, align 8
  store i32 1, ptr %5, align 4
  br label %15

10:                                               ; preds = %1
  %11 = load i32, ptr %3, align 4, !tbaa !29
  %12 = load ptr, ptr %4, align 8, !tbaa !8
  %13 = getelementptr inbounds nuw %struct.redisReply, ptr %12, i32 0, i32 0
  store i32 %11, ptr %13, align 8, !tbaa !10
  %14 = load ptr, ptr %4, align 8, !tbaa !8
  store ptr %14, ptr %2, align 8
  store i32 1, ptr %5, align 4
  br label %15

15:                                               ; preds = %10, %9
  call void @llvm.lifetime.end.p0(i64 8, ptr %4) #10
  %16 = load ptr, ptr %2, align 8
  ret ptr %16
}

; Function Attrs: nounwind uwtable
define internal ptr @createDoubleObject(ptr noundef %0, double noundef %1, ptr noundef %2, i64 noundef %3) #0 {
  %5 = alloca ptr, align 8
  %6 = alloca ptr, align 8
  %7 = alloca double, align 8
  %8 = alloca ptr, align 8
  %9 = alloca i64, align 8
  %10 = alloca ptr, align 8
  %11 = alloca ptr, align 8
  %12 = alloca i32, align 4
  store ptr %0, ptr %6, align 8, !tbaa !86
  store double %1, ptr %7, align 8, !tbaa !95
  store ptr %2, ptr %8, align 8, !tbaa !26
  store i64 %3, ptr %9, align 8, !tbaa !19
  call void @llvm.lifetime.start.p0(i64 8, ptr %10) #10
  call void @llvm.lifetime.start.p0(i64 8, ptr %11) #10
  %13 = load i64, ptr %9, align 8, !tbaa !19
  %14 = icmp eq i64 %13, -1
  br i1 %14, label %15, label %16

15:                                               ; preds = %4
  store ptr null, ptr %5, align 8
  store i32 1, ptr %12, align 4
  br label %71

16:                                               ; preds = %4
  %17 = call ptr @createReplyObject(i32 noundef 7)
  store ptr %17, ptr %10, align 8, !tbaa !8
  %18 = load ptr, ptr %10, align 8, !tbaa !8
  %19 = icmp eq ptr %18, null
  br i1 %19, label %20, label %21

20:                                               ; preds = %16
  store ptr null, ptr %5, align 8
  store i32 1, ptr %12, align 4
  br label %71

21:                                               ; preds = %16
  %22 = load double, ptr %7, align 8, !tbaa !95
  %23 = load ptr, ptr %10, align 8, !tbaa !8
  %24 = getelementptr inbounds nuw %struct.redisReply, ptr %23, i32 0, i32 2
  store double %22, ptr %24, align 8, !tbaa !96
  %25 = load i64, ptr %9, align 8, !tbaa !19
  %26 = add i64 %25, 1
  %27 = call ptr @hi_malloc(i64 noundef %26)
  %28 = load ptr, ptr %10, align 8, !tbaa !8
  %29 = getelementptr inbounds nuw %struct.redisReply, ptr %28, i32 0, i32 4
  store ptr %27, ptr %29, align 8, !tbaa !21
  %30 = load ptr, ptr %10, align 8, !tbaa !8
  %31 = getelementptr inbounds nuw %struct.redisReply, ptr %30, i32 0, i32 4
  %32 = load ptr, ptr %31, align 8, !tbaa !21
  %33 = icmp eq ptr %32, null
  br i1 %33, label %34, label %36

34:                                               ; preds = %21
  %35 = load ptr, ptr %10, align 8, !tbaa !8
  call void @freeReplyObject(ptr noundef %35)
  store ptr null, ptr %5, align 8
  store i32 1, ptr %12, align 4
  br label %71

36:                                               ; preds = %21
  %37 = load ptr, ptr %10, align 8, !tbaa !8
  %38 = getelementptr inbounds nuw %struct.redisReply, ptr %37, i32 0, i32 4
  %39 = load ptr, ptr %38, align 8, !tbaa !21
  %40 = load ptr, ptr %8, align 8, !tbaa !26
  %41 = load i64, ptr %9, align 8, !tbaa !19
  call void @llvm.memcpy.p0.p0.i64(ptr align 1 %39, ptr align 1 %40, i64 %41, i1 false)
  %42 = load ptr, ptr %10, align 8, !tbaa !8
  %43 = getelementptr inbounds nuw %struct.redisReply, ptr %42, i32 0, i32 4
  %44 = load ptr, ptr %43, align 8, !tbaa !21
  %45 = load i64, ptr %9, align 8, !tbaa !19
  %46 = getelementptr inbounds nuw i8, ptr %44, i64 %45
  store i8 0, ptr %46, align 1, !tbaa !30
  %47 = load i64, ptr %9, align 8, !tbaa !19
  %48 = load ptr, ptr %10, align 8, !tbaa !8
  %49 = getelementptr inbounds nuw %struct.redisReply, ptr %48, i32 0, i32 3
  store i64 %47, ptr %49, align 8, !tbaa !90
  %50 = load ptr, ptr %6, align 8, !tbaa !86
  %51 = getelementptr inbounds nuw %struct.redisReadTask, ptr %50, i32 0, i32 4
  %52 = load ptr, ptr %51, align 8, !tbaa !91
  %53 = icmp ne ptr %52, null
  br i1 %53, label %54, label %69

54:                                               ; preds = %36
  %55 = load ptr, ptr %6, align 8, !tbaa !86
  %56 = getelementptr inbounds nuw %struct.redisReadTask, ptr %55, i32 0, i32 4
  %57 = load ptr, ptr %56, align 8, !tbaa !91
  %58 = getelementptr inbounds nuw %struct.redisReadTask, ptr %57, i32 0, i32 3
  %59 = load ptr, ptr %58, align 8, !tbaa !92
  store ptr %59, ptr %11, align 8, !tbaa !8
  %60 = load ptr, ptr %10, align 8, !tbaa !8
  %61 = load ptr, ptr %11, align 8, !tbaa !8
  %62 = getelementptr inbounds nuw %struct.redisReply, ptr %61, i32 0, i32 7
  %63 = load ptr, ptr %62, align 8, !tbaa !18
  %64 = load ptr, ptr %6, align 8, !tbaa !86
  %65 = getelementptr inbounds nuw %struct.redisReadTask, ptr %64, i32 0, i32 2
  %66 = load i32, ptr %65, align 8, !tbaa !93
  %67 = sext i32 %66 to i64
  %68 = getelementptr inbounds ptr, ptr %63, i64 %67
  store ptr %60, ptr %68, align 8, !tbaa !8
  br label %69

69:                                               ; preds = %54, %36
  %70 = load ptr, ptr %10, align 8, !tbaa !8
  store ptr %70, ptr %5, align 8
  store i32 1, ptr %12, align 4
  br label %71

71:                                               ; preds = %69, %34, %20, %15
  call void @llvm.lifetime.end.p0(i64 8, ptr %11) #10
  call void @llvm.lifetime.end.p0(i64 8, ptr %10) #10
  %72 = load ptr, ptr %5, align 8
  ret ptr %72
}