; Function Attrs: nounwind uwtable
define internal ptr @createDoubleObject(ptr noundef readonly captures(none) %0, double noundef %1, ptr noundef readonly captures(none) %2, i64 noundef %3) #0 {
  %5 = icmp eq i64 %3, -1
  br i1 %5, label %createReplyObject.exit.thread, label %6

6:                                                ; preds = %4
  %7 = load ptr, ptr getelementptr inbounds nuw (i8, ptr @hiredisAllocFns, i64 8), align 8, !tbaa !59
  %8 = tail call ptr %7(i64 noundef 1, i64 noundef 64) #13
  %9 = icmp eq ptr %8, null
  br i1 %9, label %createReplyObject.exit.thread, label %10

10:                                               ; preds = %6
  store i32 7, ptr %8, align 8, !tbaa !4
  %11 = getelementptr inbounds nuw i8, ptr %8, i64 16
  store double %1, ptr %11, align 8, !tbaa !84
  %12 = add nuw i64 %3, 1
  %13 = load ptr, ptr @hiredisAllocFns, align 8, !tbaa !31
  %14 = tail call ptr %13(i64 noundef %12) #13
  %15 = getelementptr inbounds nuw i8, ptr %8, i64 32
  store ptr %14, ptr %15, align 8, !tbaa !19
  %16 = icmp eq ptr %14, null
  br i1 %16, label %17, label %18

17:                                               ; preds = %10
  tail call void @freeReplyObject(ptr noundef nonnull %8)
  br label %createReplyObject.exit.thread

18:                                               ; preds = %10
  tail call void @llvm.memcpy.p0.p0.i64(ptr nonnull align 1 %14, ptr align 1 %2, i64 %3, i1 false)
  %19 = load ptr, ptr %15, align 8, !tbaa !19
  %20 = getelementptr inbounds nuw i8, ptr %19, i64 %3
  store i8 0, ptr %20, align 1, !tbaa !22
  %21 = getelementptr inbounds nuw i8, ptr %8, i64 24
  store i64 %3, ptr %21, align 8, !tbaa !79
  %22 = getelementptr inbounds nuw i8, ptr %0, i64 32
  %23 = load ptr, ptr %22, align 8, !tbaa !80
  %.not = icmp eq ptr %23, null
  br i1 %.not, label %createReplyObject.exit.thread, label %24

24:                                               ; preds = %18
  %25 = getelementptr inbounds nuw i8, ptr %23, i64 24
  %26 = load ptr, ptr %25, align 8, !tbaa !81
  %27 = getelementptr inbounds nuw i8, ptr %26, i64 56
  %28 = load ptr, ptr %27, align 8, !tbaa !15
  %29 = getelementptr inbounds nuw i8, ptr %0, i64 16
  %30 = load i32, ptr %29, align 8, !tbaa !82
  %31 = sext i32 %30 to i64
  %32 = getelementptr inbounds ptr, ptr %28, i64 %31
  store ptr %8, ptr %32, align 8, !tbaa !17
  br label %createReplyObject.exit.thread

createReplyObject.exit.thread:                    ; preds = %6, %18, %24, %4, %17
  %.0 = phi ptr [ null, %17 ], [ null, %4 ], [ %8, %24 ], [ %8, %18 ], [ null, %6 ]
  ret ptr %.0
}